; Listing generated by Microsoft (R) Optimizing Compiler Version 15.00.30729.01 

include listing.inc

INCLUDELIB OLDNAMES

PUBLIC	??_C@_0P@GHFPNOJB@bad?5allocation?$AA@		; `string'
PUBLIC	?g_lRefCount@@3JC				; g_lRefCount
PUBLIC	?g_hInstance@@3PEAUHINSTANCE__@@EA		; g_hInstance
PUBLIC	IID_IShellBrowser
PUBLIC	IID_IShellView
PUBLIC	IID_IContextMenu
PUBLIC	IID_IShellIcon
PUBLIC	IID_IShellFolder
PUBLIC	IID_IShellExtInit
PUBLIC	IID_IShellPropSheetExt
PUBLIC	IID_IPersistFolder
PUBLIC	IID_IShellLinkA
PUBLIC	IID_ICommDlgBrowser
PUBLIC	IID_IEnumIDList
PUBLIC	IID_IContextMenu2
PUBLIC	IID_IShellLinkW
PUBLIC	IID_IRemoteComputer
PUBLIC	IID_IShellView2
PUBLIC	IID_ICommDlgBrowser2
PUBLIC	IID_IContextMenu3
PUBLIC	IID_IShellFolder2
PUBLIC	IID_IEnumExtraSearch
PUBLIC	IID_IFileSystemBindData
PUBLIC	CLSID_PdnShellExtension
PUBLIC	??_C@_07JLKLLPCJ@DllMain?$AA@			; `string'
PUBLIC	??_C@_0DB@PJDDHBMG@hInstance?$DN?$CFp?0?5dwReasonForCall?$DN?$CFu@ ; `string'
PUBLIC	??_C@_0BA@DPPIEDHK@DllCanUnloadNow?$AA@		; `string'
PUBLIC	??_C@_0BC@JDLGBILA@DllGetClassObject?$AA@	; `string'
PUBLIC	??_C@_0BL@GOEAHCNJ@rclsid?$DN?$CFs?0?5riid?$DN?$CFs?0?5ppv?$DN?$CFp?$AA@ ; `string'
PUBLIC	??_C@_0DF@OPOAMHJO@Calling?5IsEqualCLSID?$CIrclsid?0?5CLS@ ; `string'
PUBLIC	??_C@_0CA@GNGAICJE@Creating?5CClassFactory?5instance?$AA@ ; `string'
EXTRN	__imp_StringFromGUID2:PROC
?g_lRefCount@@3JC DD 01H DUP (?)			; g_lRefCount
	ALIGN	8

?g_hInstance@@3PEAUHINSTANCE__@@EA DQ 01H DUP (?)	; g_hInstance
;	COMDAT ??_C@_0CA@GNGAICJE@Creating?5CClassFactory?5instance?$AA@
CONST	SEGMENT
??_C@_0CA@GNGAICJE@Creating?5CClassFactory?5instance?$AA@ DB 'Creating CC'
	DB	'lassFactory instance', 00H			; `string'
CONST	ENDS
;	COMDAT ??_C@_0DF@OPOAMHJO@Calling?5IsEqualCLSID?$CIrclsid?0?5CLS@
CONST	SEGMENT
??_C@_0DF@OPOAMHJO@Calling?5IsEqualCLSID?$CIrclsid?0?5CLS@ DB 'Calling Is'
	DB	'EqualCLSID(rclsid, CLSID_PdnShellExtension', 00H ; `string'
CONST	ENDS
;	COMDAT ??_C@_0BL@GOEAHCNJ@rclsid?$DN?$CFs?0?5riid?$DN?$CFs?0?5ppv?$DN?$CFp?$AA@
CONST	SEGMENT
??_C@_0BL@GOEAHCNJ@rclsid?$DN?$CFs?0?5riid?$DN?$CFs?0?5ppv?$DN?$CFp?$AA@ DB 'r'
	DB	'clsid=%s, riid=%s, ppv=%p', 00H		; `string'
CONST	ENDS
;	COMDAT ??_C@_0BC@JDLGBILA@DllGetClassObject?$AA@
CONST	SEGMENT
??_C@_0BC@JDLGBILA@DllGetClassObject?$AA@ DB 'DllGetClassObject', 00H ; `string'
CONST	ENDS
;	COMDAT ??_C@_0BA@DPPIEDHK@DllCanUnloadNow?$AA@
CONST	SEGMENT
??_C@_0BA@DPPIEDHK@DllCanUnloadNow?$AA@ DB 'DllCanUnloadNow', 00H ; `string'
CONST	ENDS
;	COMDAT ??_C@_0DB@PJDDHBMG@hInstance?$DN?$CFp?0?5dwReasonForCall?$DN?$CFu@
CONST	SEGMENT
??_C@_0DB@PJDDHBMG@hInstance?$DN?$CFp?0?5dwReasonForCall?$DN?$CFu@ DB 'hI'
	DB	'nstance=%p, dwReasonForCall=%u, lpvReserved=%p', 00H ; `string'
CONST	ENDS
;	COMDAT ??_C@_07JLKLLPCJ@DllMain?$AA@
CONST	SEGMENT
??_C@_07JLKLLPCJ@DllMain?$AA@ DB 'DllMain', 00H		; `string'
_bad_alloc_Message DQ FLAT:??_C@_0P@GHFPNOJB@bad?5allocation?$AA@
;	COMDAT ??_C@_0P@GHFPNOJB@bad?5allocation?$AA@
CONST	SEGMENT
??_C@_0P@GHFPNOJB@bad?5allocation?$AA@ DB 'bad allocation', 00H ; `string'
CONST	ENDS
;	COMDAT CLSID_PdnShellExtension
CONST	SEGMENT
CLSID_PdnShellExtension DD 0d292f82aH
	DW	050beH
	DW	04351H
	DB	096H
	DB	0ccH
	DB	0e8H
	DB	06fH
	DB	03fH
	DB	080H
	DB	049H
	DB	0daH
CONST	ENDS
;	COMDAT IID_IFileSystemBindData
CONST	SEGMENT
IID_IFileSystemBindData DD 01e18d10H
	DW	04d8bH
	DW	011d2H
	DB	085H
	DB	05dH
	DB	00H
	DB	060H
	DB	08H
	DB	05H
	DB	093H
	DB	067H
CONST	ENDS
;	COMDAT IID_IEnumExtraSearch
CONST	SEGMENT
IID_IEnumExtraSearch DD 0e700be1H
	DW	09db6H
	DW	011d1H
	DB	0a1H
	DB	0ceH
	DB	00H
	DB	0c0H
	DB	04fH
	DB	0d7H
	DB	05dH
	DB	013H
CONST	ENDS
;	COMDAT IID_IShellFolder2
CONST	SEGMENT
IID_IShellFolder2 DD 093f2f68cH
	DW	01d1bH
	DW	011d3H
	DB	0a3H
	DB	0eH
	DB	00H
	DB	0c0H
	DB	04fH
	DB	079H
	DB	0abH
	DB	0d1H
CONST	ENDS
;	COMDAT IID_IContextMenu3
CONST	SEGMENT
IID_IContextMenu3 DD 0bcfce0a0H
	DW	0ec17H
	DW	011d0H
	DB	08dH
	DB	010H
	DB	00H
	DB	0a0H
	DB	0c9H
	DB	0fH
	DB	027H
	DB	019H
CONST	ENDS
;	COMDAT IID_ICommDlgBrowser2
CONST	SEGMENT
IID_ICommDlgBrowser2 DD 010339516H
	DW	02894H
	DW	011d2H
	DB	090H
	DB	039H
	DB	00H
	DB	0c0H
	DB	04fH
	DB	08eH
	DB	0ebH
	DB	03eH
CONST	ENDS
;	COMDAT IID_IShellView2
CONST	SEGMENT
IID_IShellView2 DD 088e39e80H
	DW	03578H
	DW	011cfH
	DB	0aeH
	DB	069H
	DB	08H
	DB	00H
	DB	02bH
	DB	02eH
	DB	012H
	DB	062H
CONST	ENDS
;	COMDAT IID_IRemoteComputer
CONST	SEGMENT
IID_IRemoteComputer DD 0214feH
	DW	00H
	DW	00H
	DB	0c0H
	DB	00H
	DB	00H
	DB	00H
	DB	00H
	DB	00H
	DB	00H
	DB	046H
CONST	ENDS
;	COMDAT IID_IShellLinkW
CONST	SEGMENT
IID_IShellLinkW DD 0214f9H
	DW	00H
	DW	00H
	DB	0c0H
	DB	00H
	DB	00H
	DB	00H
	DB	00H
	DB	00H
	DB	00H
	DB	046H
CONST	ENDS
;	COMDAT IID_IContextMenu2
CONST	SEGMENT
IID_IContextMenu2 DD 0214f4H
	DW	00H
	DW	00H
	DB	0c0H
	DB	00H
	DB	00H
	DB	00H
	DB	00H
	DB	00H
	DB	00H
	DB	046H
CONST	ENDS
;	COMDAT IID_IEnumIDList
CONST	SEGMENT
IID_IEnumIDList DD 0214f2H
	DW	00H
	DW	00H
	DB	0c0H
	DB	00H
	DB	00H
	DB	00H
	DB	00H
	DB	00H
	DB	00H
	DB	046H
CONST	ENDS
;	COMDAT IID_ICommDlgBrowser
CONST	SEGMENT
IID_ICommDlgBrowser DD 0214f1H
	DW	00H
	DW	00H
	DB	0c0H
	DB	00H
	DB	00H
	DB	00H
	DB	00H
	DB	00H
	DB	00H
	DB	046H
CONST	ENDS
;	COMDAT IID_IShellLinkA
CONST	SEGMENT
IID_IShellLinkA DD 0214eeH
	DW	00H
	DW	00H
	DB	0c0H
	DB	00H
	DB	00H
	DB	00H
	DB	00H
	DB	00H
	DB	00H
	DB	046H
CONST	ENDS
;	COMDAT IID_IPersistFolder
CONST	SEGMENT
IID_IPersistFolder DD 0214eaH
	DW	00H
	DW	00H
	DB	0c0H
	DB	00H
	DB	00H
	DB	00H
	DB	00H
	DB	00H
	DB	00H
	DB	046H
CONST	ENDS
;	COMDAT IID_IShellPropSheetExt
CONST	SEGMENT
IID_IShellPropSheetExt DD 0214e9H
	DW	00H
	DW	00H
	DB	0c0H
	DB	00H
	DB	00H
	DB	00H
	DB	00H
	DB	00H
	DB	00H
	DB	046H
CONST	ENDS
;	COMDAT IID_IShellExtInit
CONST	SEGMENT
IID_IShellExtInit DD 0214e8H
	DW	00H
	DW	00H
	DB	0c0H
	DB	00H
	DB	00H
	DB	00H
	DB	00H
	DB	00H
	DB	00H
	DB	046H
CONST	ENDS
;	COMDAT IID_IShellFolder
CONST	SEGMENT
IID_IShellFolder DD 0214e6H
	DW	00H
	DW	00H
	DB	0c0H
	DB	00H
	DB	00H
	DB	00H
	DB	00H
	DB	00H
	DB	00H
	DB	046H
CONST	ENDS
;	COMDAT IID_IShellIcon
CONST	SEGMENT
IID_IShellIcon DD 0214e5H
	DW	00H
	DW	00H
	DB	0c0H
	DB	00H
	DB	00H
	DB	00H
	DB	00H
	DB	00H
	DB	00H
	DB	046H
CONST	ENDS
;	COMDAT IID_IContextMenu
CONST	SEGMENT
IID_IContextMenu DD 0214e4H
	DW	00H
	DW	00H
	DB	0c0H
	DB	00H
	DB	00H
	DB	00H
	DB	00H
	DB	00H
	DB	00H
	DB	046H
CONST	ENDS
;	COMDAT IID_IShellView
CONST	SEGMENT
IID_IShellView DD 0214e3H
	DW	00H
	DW	00H
	DB	0c0H
	DB	00H
	DB	00H
	DB	00H
	DB	00H
	DB	00H
	DB	00H
	DB	046H
CONST	ENDS
;	COMDAT IID_IShellBrowser
CONST	SEGMENT
IID_IShellBrowser DD 0214e2H
	DW	00H
	DW	00H
	DB	0c0H
	DB	00H
	DB	00H
	DB	00H
	DB	00H
	DB	00H
	DB	00H
	DB	046H
PUBLIC	DllCanUnloadNow
; Function compile flags: /Ogspy
; File e:\my_project\openpdn\openpdn-e28f1ff0077e\src\shellextension\pdnshell.cpp
;	COMDAT DllCanUnloadNow
_TEXT	SEGMENT
DllCanUnloadNow PROC					; COMDAT

; 88   :     HRESULT hr;
; 89   : 
; 90   :     TraceEnter();
; 91   : 
; 92   :     if (0 == g_lRefCount)

  00000	8b 0d 00 00 00
	00		 mov	 ecx, DWORD PTR ?g_lRefCount@@3JC ; g_lRefCount
  00006	33 c0		 xor	 eax, eax
  00008	3b c8		 cmp	 ecx, eax
  0000a	0f 95 c0	 setne	 al

; 93   :     {
; 94   :         hr = S_OK;
; 95   :     }
; 96   :     else
; 97   :     {
; 98   :         hr = S_FALSE;
; 99   :     }
; 100  : 
; 101  :     TraceLeaveHr(hr);
; 102  :     return hr;
; 103  : }

  0000d	c3		 ret	 0
DllCanUnloadNow ENDP
_TEXT	ENDS
PUBLIC	DllMain
; Function compile flags: /Ogspy
;	COMDAT DllMain
_TEXT	SEGMENT
hInstance$ = 8
dwReasonForCall$ = 16
lpvReserved$ = 24
DllMain	PROC						; COMDAT

; 62   :     TraceEnter();
; 63   :     TraceOut("hInstance=%p, dwReasonForCall=%u, lpvReserved=%p", hInstance, dwReasonForCall, lpvReserved);
; 64   : 
; 65   :     switch (dwReasonForCall)

  00000	b8 01 00 00 00	 mov	 eax, 1
  00005	85 d2		 test	 edx, edx
  00007	74 0c		 je	 SHORT $LN2@DllMain
  00009	3b d0		 cmp	 edx, eax
  0000b	75 10		 jne	 SHORT $LN6@DllMain

; 66   :     {
; 67   :         case DLL_PROCESS_ATTACH:
; 68   :             g_hInstance = hInstance;

  0000d	48 89 0d 00 00
	00 00		 mov	 QWORD PTR ?g_hInstance@@3PEAUHINSTANCE__@@EA, rcx ; g_hInstance

; 79   :             break;
; 80   :     }
; 81   : 
; 82   :     TraceLeave();
; 83   :     return TRUE;
; 84   : }

  00014	c3		 ret	 0
$LN2@DllMain:

; 69   :             break;
; 70   : 
; 71   :         case DLL_THREAD_ATTACH:
; 72   :             break;
; 73   : 
; 74   :         case DLL_THREAD_DETACH:
; 75   :             break;
; 76   : 
; 77   :         case DLL_PROCESS_DETACH:
; 78   :             g_hInstance = NULL;

  00015	48 83 25 00 00
	00 00 00	 and	 QWORD PTR ?g_hInstance@@3PEAUHINSTANCE__@@EA, 0 ; g_hInstance
$LN6@DllMain:

; 79   :             break;
; 80   :     }
; 81   : 
; 82   :     TraceLeave();
; 83   :     return TRUE;
; 84   : }

  0001d	c3		 ret	 0
DllMain	ENDP
_TEXT	ENDS
PUBLIC	guid$GSCopy$
PUBLIC	?GuidToString@@YAPEB_WU_GUID@@@Z		; GuidToString
;	COMDAT ?szGuid@?1??GuidToString@@YAPEB_WU_GUID@@@Z@4PA_WA
_BSS	SEGMENT
?szGuid@?1??GuidToString@@YAPEB_WU_GUID@@@Z@4PA_WA DW 080H DUP (?) ; `GuidToString'::`2'::szGuid
_BSS	ENDS
;	COMDAT pdata
pdata	SEGMENT
$pdata$?GuidToString@@YAPEB_WU_GUID@@@Z DD imagerel $LN3
	DD	imagerel $LN3+50
	DD	imagerel $unwind$?GuidToString@@YAPEB_WU_GUID@@@Z
pdata	ENDS
;	COMDAT xdata
xdata	SEGMENT
$unwind$?GuidToString@@YAPEB_WU_GUID@@@Z DD 010401H
	DD	06204H
; Function compile flags: /Ogspy
xdata	ENDS
;	COMDAT ?GuidToString@@YAPEB_WU_GUID@@@Z
_TEXT	SEGMENT
guid$GSCopy$ = 32
guid$ = 64
?GuidToString@@YAPEB_WU_GUID@@@Z PROC			; GuidToString, COMDAT

; 54   : {

$LN3:
  00000	48 83 ec 38	 sub	 rsp, 56			; 00000038H

; 55   :     static WCHAR szGuid[128];
; 56   :     StringFromGUID2(guid, szGuid, 128);

  00004	f3 0f 6f 01	 movdqu	 xmm0, XMMWORD PTR [rcx]
  00008	48 8d 15 00 00
	00 00		 lea	 rdx, OFFSET FLAT:?szGuid@?1??GuidToString@@YAPEB_WU_GUID@@@Z@4PA_WA
  0000f	48 8d 4c 24 20	 lea	 rcx, QWORD PTR guid$GSCopy$[rsp]
  00014	41 b8 80 00 00
	00		 mov	 r8d, 128		; 00000080H
  0001a	f3 0f 7f 44 24
	20		 movdqu	 XMMWORD PTR guid$GSCopy$[rsp], xmm0
  00020	ff 15 00 00 00
	00		 call	 QWORD PTR __imp_StringFromGUID2

; 57   :     return szGuid;

  00026	48 8d 05 00 00
	00 00		 lea	 rax, OFFSET FLAT:?szGuid@?1??GuidToString@@YAPEB_WU_GUID@@@Z@4PA_WA

; 58   : }

  0002d	48 83 c4 38	 add	 rsp, 56			; 00000038H
  00031	c3		 ret	 0
?GuidToString@@YAPEB_WU_GUID@@@Z ENDP			; GuidToString
PUBLIC	DllGetClassObject
;	COMDAT pdata
; File e:\my_project\openpdn\openpdn-e28f1ff0077e\src\shellextension\classfactory.cpp
pdata	SEGMENT
$pdata$DllGetClassObject DD imagerel $LN32
	DD	imagerel $LN32+205
	DD	imagerel $unwind$DllGetClassObject
pdata	ENDS
;	COMDAT xdata
xdata	SEGMENT
$unwind$DllGetClassObject DD 081401H
	DD	086414H
	DD	075414H
	DD	063414H
	DD	070103214H
; Function compile flags: /Ogspy
; File e:\my_project\openpdn\openpdn-e28f1ff0077e\src\shellextension\pdnshell.cpp
xdata	ENDS
;	COMDAT DllGetClassObject
_TEXT	SEGMENT
rclsid$ = 48
riid$ = 56
ppv$ = 64
DllGetClassObject PROC					; COMDAT

; 106  : {

$LN32:
  00000	48 89 5c 24 08	 mov	 QWORD PTR [rsp+8], rbx
  00005	48 89 6c 24 10	 mov	 QWORD PTR [rsp+16], rbp
  0000a	48 89 74 24 18	 mov	 QWORD PTR [rsp+24], rsi
  0000f	57		 push	 rdi
  00010	48 83 ec 20	 sub	 rsp, 32			; 00000020H
  00014	49 8b f0	 mov	 rsi, r8
  00017	48 8b ea	 mov	 rbp, rdx
  0001a	48 8b d9	 mov	 rbx, rcx

; 107  :     TraceEnter();
; 108  :     CClassFactory *pFactory = NULL;
; 109  :     HRESULT hr = S_OK;
; 110  : 
; 111  :     TraceOut("rclsid=%s, riid=%s, ppv=%p", GuidToString(rclsid), GuidToString(riid), ppv);
; 112  : 
; 113  :     if (SUCCEEDED(hr))
; 114  :     {
; 115  :         if (NULL == ppv)

  0001d	4d 85 c0	 test	 r8, r8
  00020	75 0a		 jne	 SHORT $LN27@DllGetClas

; 116  :         {
; 117  :             hr = E_INVALIDARG;

  00022	bb 57 00 07 80	 mov	 ebx, -2147024809	; ffffffff80070057H

; 118  :         }
; 119  :     }
; 120  : 
; 121  :     // TODO: Why aren't we checking riid at all?
; 122  : 
; 123  :     if (SUCCEEDED(hr))

  00027	e9 8a 00 00 00	 jmp	 $LN2@DllGetClas
$LN27@DllGetClas:

; 124  :     {
; 125  :         TraceOut("Calling IsEqualCLSID(rclsid, CLSID_PdnShellExtension");
; 126  :         if (!IsEqualCLSID(rclsid, CLSID_PdnShellExtension))

  0002c	48 8b 13	 mov	 rdx, QWORD PTR [rbx]
  0002f	48 8d 0d 00 00
	00 00		 lea	 rcx, OFFSET FLAT:CLSID_PdnShellExtension
  00036	48 3b 11	 cmp	 rdx, QWORD PTR [rcx]
  00039	75 0e		 jne	 SHORT $LN30@DllGetClas
  0003b	48 8b 53 08	 mov	 rdx, QWORD PTR [rbx+8]
  0003f	48 3b 51 08	 cmp	 rdx, QWORD PTR [rcx+8]
  00043	75 04		 jne	 SHORT $LN30@DllGetClas
  00045	33 c0		 xor	 eax, eax
  00047	eb 05		 jmp	 SHORT $LN31@DllGetClas
$LN30@DllGetClas:
  00049	1b c0		 sbb	 eax, eax
  0004b	83 d8 ff	 sbb	 eax, -1
$LN31@DllGetClas:
  0004e	85 c0		 test	 eax, eax
  00050	74 07		 je	 SHORT $LN28@DllGetClas

; 127  :         {
; 128  :             hr = CLASS_E_CLASSNOTAVAILABLE;

  00052	bb 11 01 04 80	 mov	 ebx, -2147221231	; ffffffff80040111H

; 129  :         }
; 130  :     }
; 131  : 
; 132  :     if (SUCCEEDED(hr))

  00057	eb 5d		 jmp	 SHORT $LN2@DllGetClas
$LN28@DllGetClas:

; 133  :     {
; 134  :         TraceOut("Creating CClassFactory instance");
; 135  :         pFactory = new CClassFactory(rclsid);

  00059	b9 20 00 00 00	 mov	 ecx, 32			; 00000020H
  0005e	e8 00 00 00 00	 call	 ??2@YAPEAX_K@Z		; operator new
  00063	48 8b f8	 mov	 rdi, rax
  00066	48 85 c0	 test	 rax, rax
  00069	74 24		 je	 SHORT $LN15@DllGetClas
  0006b	f3 0f 6f 03	 movdqu	 xmm0, XMMWORD PTR [rbx]
  0006f	48 8d 05 00 00
	00 00		 lea	 rax, OFFSET FLAT:??_7CClassFactory@@6B@
  00076	c7 47 08 01 00
	00 00		 mov	 DWORD PTR [rdi+8], 1
  0007d	48 89 07	 mov	 QWORD PTR [rdi], rax
  00080	f3 0f 7f 47 0c	 movdqu	 XMMWORD PTR [rdi+12], xmm0
  00085	f0 83 05 00 00
	00 00 01	 lock add DWORD PTR ?g_lRefCount@@3JC, 1 ; g_lRefCount
  0008d	eb 02		 jmp	 SHORT $LN16@DllGetClas
$LN15@DllGetClas:
  0008f	33 ff		 xor	 edi, edi
$LN16@DllGetClas:

; 136  : 
; 137  :         if (NULL == pFactory)

  00091	48 85 ff	 test	 rdi, rdi
  00094	75 07		 jne	 SHORT $LN29@DllGetClas

; 138  :         {
; 139  :             hr = E_OUTOFMEMORY;

  00096	bb 0e 00 07 80	 mov	 ebx, -2147024882	; ffffffff8007000eH

; 140  :         }
; 141  :     }
; 142  : 
; 143  :     if (SUCCEEDED(hr))

  0009b	eb 19		 jmp	 SHORT $LN2@DllGetClas
$LN29@DllGetClas:

; 144  :     {
; 145  :         hr = pFactory->QueryInterface(riid, ppv);

  0009d	48 8b 07	 mov	 rax, QWORD PTR [rdi]
  000a0	4c 8b c6	 mov	 r8, rsi
  000a3	48 8b d5	 mov	 rdx, rbp
  000a6	48 8b cf	 mov	 rcx, rdi
  000a9	ff 10		 call	 QWORD PTR [rax]

; 146  :         pFactory->Release();

  000ab	48 8b 17	 mov	 rdx, QWORD PTR [rdi]
  000ae	48 8b cf	 mov	 rcx, rdi
  000b1	8b d8		 mov	 ebx, eax
  000b3	ff 52 10	 call	 QWORD PTR [rdx+16]
$LN2@DllGetClas:

; 147  :     }
; 148  : 
; 149  :     TraceLeaveHr(hr);
; 150  :     return hr;
; 151  : }

  000b6	48 8b 6c 24 38	 mov	 rbp, QWORD PTR [rsp+56]
  000bb	48 8b 74 24 40	 mov	 rsi, QWORD PTR [rsp+64]
  000c0	8b c3		 mov	 eax, ebx
  000c2	48 8b 5c 24 30	 mov	 rbx, QWORD PTR [rsp+48]
  000c7	48 83 c4 20	 add	 rsp, 32			; 00000020H
  000cb	5f		 pop	 rdi
  000cc	c3		 ret	 0
DllGetClassObject ENDP
END
